; ModuleID = '20/665.c'
source_filename = "20/665.c"
target datalayout = "e-m:e-p270:32:32-p271:32:32-p272:64:64-i64:64-f80:128-n8:16:32:64-S128"
target triple = "x86_64-pc-linux-gnu"

@.str = private unnamed_addr constant [5 x i8] c"%s%s\00", align 1
@.str.1 = private unnamed_addr constant [4 x i8] c"%s\0A\00", align 1

; Function Attrs: noinline nounwind uwtable
define dso_local void @main() #0 {
  %1 = alloca i32, align 4
  %2 = alloca i32, align 4
  %3 = alloca i32, align 4
  %4 = alloca i32, align 4
  %5 = alloca [15 x i8], align 1
  %6 = alloca [4 x i8], align 1
  br label %7

7:                                                ; preds = %84, %0
  %8 = getelementptr inbounds [15 x i8], [15 x i8]* %5, i64 0, i64 0
  %9 = getelementptr inbounds [4 x i8], [4 x i8]* %6, i64 0, i64 0
  %10 = call i32 (i8*, ...) @__isoc99_scanf(i8* getelementptr inbounds ([5 x i8], [5 x i8]* @.str, i64 0, i64 0), i8* %8, i8* %9)
  %11 = icmp ne i32 %10, -1
  br i1 %11, label %12, label %91

12:                                               ; preds = %7
  %13 = getelementptr inbounds [15 x i8], [15 x i8]* %5, i64 0, i64 0
  %14 = call i64 @strlen(i8* %13) #3
  %15 = trunc i64 %14 to i32
  store i32 %15, i32* %3, align 4
  store i32 0, i32* %4, align 4
  store i32 1, i32* %1, align 4
  br label %16

16:                                               ; preds = %38, %12
  %17 = load i32, i32* %1, align 4
  %18 = sext i32 %17 to i64
  %19 = getelementptr inbounds [15 x i8], [15 x i8]* %5, i64 0, i64 %18
  %20 = load i8, i8* %19, align 1
  %21 = sext i8 %20 to i32
  %22 = icmp ne i32 %21, 0
  br i1 %22, label %23, label %41

23:                                               ; preds = %16
  %24 = load i32, i32* %1, align 4
  %25 = sext i32 %24 to i64
  %26 = getelementptr inbounds [15 x i8], [15 x i8]* %5, i64 0, i64 %25
  %27 = load i8, i8* %26, align 1
  %28 = sext i8 %27 to i32
  %29 = load i32, i32* %4, align 4
  %30 = sext i32 %29 to i64
  %31 = getelementptr inbounds [15 x i8], [15 x i8]* %5, i64 0, i64 %30
  %32 = load i8, i8* %31, align 1
  %33 = sext i8 %32 to i32
  %34 = icmp sgt i32 %28, %33
  br i1 %34, label %35, label %37

35:                                               ; preds = %23
  %36 = load i32, i32* %1, align 4
  store i32 %36, i32* %4, align 4
  br label %37

37:                                               ; preds = %35, %23
  br label %38

38:                                               ; preds = %37
  %39 = load i32, i32* %1, align 4
  %40 = add nsw i32 %39, 1
  store i32 %40, i32* %1, align 4
  br label %16

41:                                               ; preds = %16
  %42 = load i32, i32* %3, align 4
  %43 = sub nsw i32 %42, 1
  store i32 %43, i32* %1, align 4
  br label %44

44:                                               ; preds = %57, %41
  %45 = load i32, i32* %1, align 4
  %46 = load i32, i32* %4, align 4
  %47 = icmp sgt i32 %45, %46
  br i1 %47, label %48, label %60

48:                                               ; preds = %44
  %49 = load i32, i32* %1, align 4
  %50 = sext i32 %49 to i64
  %51 = getelementptr inbounds [15 x i8], [15 x i8]* %5, i64 0, i64 %50
  %52 = load i8, i8* %51, align 1
  %53 = load i32, i32* %1, align 4
  %54 = add nsw i32 %53, 3
  %55 = sext i32 %54 to i64
  %56 = getelementptr inbounds [15 x i8], [15 x i8]* %5, i64 0, i64 %55
  store i8 %52, i8* %56, align 1
  br label %57

57:                                               ; preds = %48
  %58 = load i32, i32* %1, align 4
  %59 = add nsw i32 %58, -1
  store i32 %59, i32* %1, align 4
  br label %44

60:                                               ; preds = %44
  %61 = load i32, i32* %4, align 4
  %62 = add nsw i32 %61, 1
  store i32 %62, i32* %1, align 4
  store i32 0, i32* %2, align 4
  br label %63

63:                                               ; preds = %79, %60
  %64 = load i32, i32* %1, align 4
  %65 = load i32, i32* %4, align 4
  %66 = add nsw i32 %65, 3
  %67 = icmp sle i32 %64, %66
  %68 = zext i1 %67 to i32
  %69 = load i32, i32* %2, align 4
  %70 = icmp slt i32 %69, 3
  br i1 %70, label %71, label %84

71:                                               ; preds = %63
  %72 = load i32, i32* %2, align 4
  %73 = sext i32 %72 to i64
  %74 = getelementptr inbounds [4 x i8], [4 x i8]* %6, i64 0, i64 %73
  %75 = load i8, i8* %74, align 1
  %76 = load i32, i32* %1, align 4
  %77 = sext i32 %76 to i64
  %78 = getelementptr inbounds [15 x i8], [15 x i8]* %5, i64 0, i64 %77
  store i8 %75, i8* %78, align 1
  br label %79

79:                                               ; preds = %71
  %80 = load i32, i32* %1, align 4
  %81 = add nsw i32 %80, 1
  store i32 %81, i32* %1, align 4
  %82 = load i32, i32* %2, align 4
  %83 = add nsw i32 %82, 1
  store i32 %83, i32* %2, align 4
  br label %63

84:                                               ; preds = %63
  %85 = load i32, i32* %3, align 4
  %86 = add nsw i32 %85, 3
  %87 = sext i32 %86 to i64
  %88 = getelementptr inbounds [15 x i8], [15 x i8]* %5, i64 0, i64 %87
  store i8 0, i8* %88, align 1
  %89 = getelementptr inbounds [15 x i8], [15 x i8]* %5, i64 0, i64 0
  %90 = call i32 (i8*, ...) @printf(i8* getelementptr inbounds ([4 x i8], [4 x i8]* @.str.1, i64 0, i64 0), i8* %89)
  br label %7

91:                                               ; preds = %7
  ret void
}

declare dso_local i32 @__isoc99_scanf(i8*, ...) #1

; Function Attrs: nounwind readonly
declare dso_local i64 @strlen(i8*) #2

declare dso_local i32 @printf(i8*, ...) #1


!llvm.module.flags = !{!0}
!llvm.ident = !{!1}

!0 = !{i32 1, !"wchar_size", i32 4}
!1 = !{!"clang version 10.0.0-4ubuntu1 "}
